; Function Attrs: mustprogress nounwind uwtable
define internal noundef zeroext i1 @"_ZNSt17_Function_handlerIFbRKN4llvm13LegalityQueryEEZNS0_20AArch64LegalizerInfoC1ERKNS0_16AArch64SubtargetEE3$_1E9_M_invokeERKSt9_Any_dataS3_"(ptr nocapture nonnull readnone align 8 %0, ptr nocapture noundef nonnull readonly align 8 dereferenceable(40) %1) #0 align 2 {
  %3 = getelementptr inbounds i8, ptr %1, i64 8
  %.val = load ptr, ptr %3, align 8
  %4 = load i64, ptr %.val, align 8
  %5 = and i64 %4, 2
  %.not.i.i.i.i.i = icmp eq i64 %5, 0
  %6 = select i1 %.not.i.i.i.i.i, i64 2251799813685248, i64 576460752303423488
  %7 = and i64 %6, %4
  %.not.i.i.i.i = icmp eq i64 %7, 0
  br i1 %.not.i.i.i.i, label %"_ZSt10__invoke_rIbRZN4llvm20AArch64LegalizerInfoC1ERKNS0_16AArch64SubtargetEE3$_1JRKNS0_13LegalityQueryEEENSt9enable_ifIX16is_invocable_r_vIT_T0_DpT1_EESB_E4typeEOSC_DpOSD_.exit", label %8

8:                                                ; preds = %2
  tail call void @_ZN4llvm24reportInvalidSizeRequestEPKc(ptr noundef nonnull @.str.42) #20
  %.pre.i.i.i.i = load i64, ptr %.val, align 8
  br label %"_ZSt10__invoke_rIbRZN4llvm20AArch64LegalizerInfoC1ERKNS0_16AArch64SubtargetEE3$_1JRKNS0_13LegalityQueryEEENSt9enable_ifIX16is_invocable_r_vIT_T0_DpT1_EESB_E4typeEOSC_DpOSD_.exit"

"_ZSt10__invoke_rIbRZN4llvm20AArch64LegalizerInfoC1ERKNS0_16AArch64SubtargetEE3$_1JRKNS0_13LegalityQueryEEENSt9enable_ifIX16is_invocable_r_vIT_T0_DpT1_EESB_E4typeEOSC_DpOSD_.exit": ; preds = %2, %8
  %9 = phi i64 [ %.pre.i.i.i.i, %8 ], [ %4, %2 ]
  %10 = lshr i64 %9, 3
  %11 = trunc i64 %10 to i16
  %12 = icmp ult i16 %11, 5
  ret i1 %12
}